; ModuleID = 'source-C-CXX/12/820.c'
source_filename = "source-C-CXX/12/820.c"
target datalayout = "e-m:e-p270:32:32-p271:32:32-p272:64:64-i64:64-f80:128-n8:16:32:64-S128"
target triple = "x86_64-pc-linux-gnu"

@.str = private unnamed_addr constant [3 x i8] c"%d\00", align 1
@.str.1 = private unnamed_addr constant [4 x i8] c" %d\00", align 1

; Function Attrs: nofree nounwind sspstrong uwtable
define dso_local i32 @main() local_unnamed_addr #0 {
  %1 = alloca i32, align 4
  %2 = bitcast i32* %1 to i8*
  call void @llvm.lifetime.start.p0i8(i64 4, i8* nonnull %2) #4
  %3 = call i32 (i8*, ...) @__isoc99_scanf(i8* getelementptr inbounds ([3 x i8], [3 x i8]* @.str, i64 0, i64 0), i32* nonnull %1)
  %4 = load i32, i32* %1, align 4, !tbaa !5
  %5 = add nsw i32 %4, 1
  %6 = zext i32 %5 to i64
  %7 = call i8* @llvm.stacksave()
  %8 = alloca i32, i64 %6, align 16
  %9 = getelementptr inbounds i32, i32* %8, i64 1
  %10 = call i32 (i8*, ...) @__isoc99_scanf(i8* getelementptr inbounds ([3 x i8], [3 x i8]* @.str, i64 0, i64 0), i32* nonnull %9)
  %11 = load i32, i32* %9, align 4, !tbaa !5
  %12 = call i32 (i8*, ...) @printf(i8* nonnull dereferenceable(1) getelementptr inbounds ([3 x i8], [3 x i8]* @.str, i64 0, i64 0), i32 %11)
  %13 = load i32, i32* %1, align 4, !tbaa !5
  %14 = icmp slt i32 %13, 2
  br i1 %14, label %38, label %15

15:                                               ; preds = %0, %33
  %16 = phi i64 [ %34, %33 ], [ 2, %0 ]
  %17 = getelementptr inbounds i32, i32* %8, i64 %16
  %18 = call i32 (i8*, ...) @__isoc99_scanf(i8* getelementptr inbounds ([3 x i8], [3 x i8]* @.str, i64 0, i64 0), i32* nonnull %17)
  %19 = add nsw i64 %16, -1
  br label %20

20:                                               ; preds = %15, %30
  %21 = phi i64 [ 1, %15 ], [ %31, %30 ]
  %22 = getelementptr inbounds i32, i32* %8, i64 %21
  %23 = load i32, i32* %22, align 4, !tbaa !5
  %24 = load i32, i32* %17, align 4, !tbaa !5
  %25 = icmp eq i32 %23, %24
  br i1 %25, label %33, label %26

26:                                               ; preds = %20
  %27 = icmp eq i64 %21, %19
  br i1 %27, label %28, label %30

28:                                               ; preds = %26
  %29 = call i32 (i8*, ...) @printf(i8* nonnull dereferenceable(1) getelementptr inbounds ([4 x i8], [4 x i8]* @.str.1, i64 0, i64 0), i32 %24)
  br label %30

30:                                               ; preds = %26, %28
  %31 = add nuw nsw i64 %21, 1
  %32 = icmp eq i64 %31, %16
  br i1 %32, label %33, label %20, !llvm.loop !9

33:                                               ; preds = %20, %30
  %34 = add nuw nsw i64 %16, 1
  %35 = load i32, i32* %1, align 4, !tbaa !5
  %36 = sext i32 %35 to i64
  %37 = icmp slt i64 %16, %36
  br i1 %37, label %15, label %38, !llvm.loop !11

38:                                               ; preds = %33, %0
  call void @llvm.stackrestore(i8* %7)
  call void @llvm.lifetime.end.p0i8(i64 4, i8* nonnull %2) #4
  ret i32 0
}

; Function Attrs: argmemonly mustprogress nofree nosync nounwind willreturn
declare void @llvm.lifetime.start.p0i8(i64 immarg, i8* nocapture) #1

; Function Attrs: nofree nounwind
declare noundef i32 @__isoc99_scanf(i8* nocapture noundef readonly, ...) local_unnamed_addr #2

; Function Attrs: mustprogress nofree nosync nounwind willreturn
declare i8* @llvm.stacksave() #3

; Function Attrs: nofree nounwind
declare noundef i32 @printf(i8* nocapture noundef readonly, ...) local_unnamed_addr #2

; Function Attrs: mustprogress nofree nosync nounwind willreturn
declare void @llvm.stackrestore(i8*) #3

; Function Attrs: argmemonly mustprogress nofree nosync nounwind willreturn
declare void @llvm.lifetime.end.p0i8(i64 immarg, i8* nocapture) #1


!llvm.module.flags = !{!0, !1, !2, !3}
!llvm.ident = !{!4}

!0 = !{i32 1, !"wchar_size", i32 4}
!1 = !{i32 7, !"PIC Level", i32 2}
!2 = !{i32 7, !"PIE Level", i32 2}
!3 = !{i32 7, !"uwtable", i32 1}
!4 = !{!"clang version 13.0.0"}
!5 = !{!6, !6, i64 0}
!6 = !{!"int", !7, i64 0}
!7 = !{!"omnipotent char", !8, i64 0}
!8 = !{!"Simple C/C++ TBAA"}
!9 = distinct !{!9, !10}
!10 = !{!"llvm.loop.mustprogress"}
!11 = distinct !{!11, !10}
